target datalayout = "e-m:e-p270:32:32-p271:32:32-p272:64:64-i64:64-i128:128-f80:128-n8:16:32:64-S128"
target triple = "x86_64-pc-linux-gnu"

@_ZZ33btQuickprofGetCurrentThreadIndex2vE12sThreadIndex = internal thread_local global i32 -1, align 4
@_ZZ33btQuickprofGetCurrentThreadIndex2vE14gThreadCounter = internal global i32 0, align 4

; Function Attrs: mustprogress nounwind uwtable
define dso_local noundef i32 @_Z33btQuickprofGetCurrentThreadIndex2v() #1 {
  %1 = alloca i32, align 4
  call void @llvm.lifetime.start.p0(i64 4, ptr %1) #11
  store i32 -1, ptr %1, align 4, !tbaa !9
  %2 = call align 4 ptr @llvm.threadlocal.address.p0(ptr align 4 @_ZZ33btQuickprofGetCurrentThreadIndex2vE12sThreadIndex)
  %3 = load i32, ptr %2, align 4, !tbaa !9
  %4 = icmp eq i32 %3, -1
  br i1 %4, label %5, label %9

5:                                                ; preds = %0
  %6 = load i32, ptr @_ZZ33btQuickprofGetCurrentThreadIndex2vE14gThreadCounter, align 4, !tbaa !9
  %7 = add nsw i32 %6, 1
  store i32 %7, ptr @_ZZ33btQuickprofGetCurrentThreadIndex2vE14gThreadCounter, align 4, !tbaa !9
  %8 = call align 4 ptr @llvm.threadlocal.address.p0(ptr align 4 @_ZZ33btQuickprofGetCurrentThreadIndex2vE12sThreadIndex)
  store i32 %6, ptr %8, align 4, !tbaa !9
  br label %9

9:                                                ; preds = %5, %0
  %10 = call align 4 ptr @llvm.threadlocal.address.p0(ptr align 4 @_ZZ33btQuickprofGetCurrentThreadIndex2vE12sThreadIndex)
  %11 = load i32, ptr %10, align 4, !tbaa !9
  call void @llvm.lifetime.end.p0(i64 4, ptr %1) #11
  ret i32 %11
}