; Function Attrs: mustprogress nofree norecurse nosync nounwind willreturn memory(readwrite, argmem: none, inaccessiblemem: none) uwtable
define dso_local noundef i32 @_Z33btQuickprofGetCurrentThreadIndex2v() local_unnamed_addr #11 {
  %1 = tail call align 4 ptr @llvm.threadlocal.address.p0(ptr align 4 @_ZZ33btQuickprofGetCurrentThreadIndex2vE12sThreadIndex)
  %2 = load i32, ptr %1, align 4, !tbaa !19
  %3 = icmp eq i32 %2, -1
  br i1 %3, label %4, label %7

4:                                                ; preds = %0
  %5 = load i32, ptr @_ZZ33btQuickprofGetCurrentThreadIndex2vE14gThreadCounter, align 4, !tbaa !19
  %6 = add nsw i32 %5, 1
  store i32 %6, ptr @_ZZ33btQuickprofGetCurrentThreadIndex2vE14gThreadCounter, align 4, !tbaa !19
  store i32 %5, ptr %1, align 4, !tbaa !19
  br label %7

7:                                                ; preds = %4, %0
  %8 = phi i32 [ %5, %4 ], [ %2, %0 ]
  ret i32 %8
}